target datalayout = "e-m:e-p270:32:32-p271:32:32-p272:64:64-i64:64-i128:128-f80:128-n8:16:32:64-S128"
target triple = "x86_64-pc-linux-gnu"

%"class.std::_Sp_counted_base" = type { ptr, i32, i32 }
%"class.std::_Sp_counted_deleter" = type { %"class.std::_Sp_counted_base", %"class.std::_Sp_counted_deleter<_priv_exr_context_t **, (lambda at /home/dtcxzyw/WorkSpace/Projects/compilers/llvm-opt-benchmark/bench/openexr/openexr/src/lib/OpenEXR/ImfContext.cpp:109:35), std::allocator<void>, __gnu_cxx::_S_atomic>::_Impl" }
%"class.std::_Sp_counted_deleter<_priv_exr_context_t **, (lambda at /home/dtcxzyw/WorkSpace/Projects/compilers/llvm-opt-benchmark/bench/openexr/openexr/src/lib/OpenEXR/ImfContext.cpp:109:35), std::allocator<void>, __gnu_cxx::_S_atomic>::_Impl" = type { ptr }

; Function Attrs: mustprogress nounwind uwtable
define internal noundef nonnull align 1 dereferenceable(1) ptr @"_ZNSt14_Sp_ebo_helperILi0EZN7Imf_3_47ContextC1EvE3$_0Lb1EE6_S_getERS3_"(ptr noundef nonnull align 1 dereferenceable(1) %0) #7 align 2 {
  %2 = alloca ptr, align 8
  store ptr %0, ptr %2, align 8, !tbaa !410
  %3 = load ptr, ptr %2, align 8, !tbaa !410
  ret ptr %3
}

; Function Attrs: inlinehint mustprogress uwtable
define internal void @"_ZZN7Imf_3_47ContextC1EvENK3$_0clEPP19_priv_exr_context_t"(ptr noundef nonnull align 1 dereferenceable(1) %0, ptr noundef %1) #8 align 2 {
  %3 = alloca ptr, align 8
  %4 = alloca ptr, align 8
  store ptr %0, ptr %3, align 8, !tbaa !41
  store ptr %1, ptr %4, align 8, !tbaa !12
  %5 = load ptr, ptr %4, align 8, !tbaa !12
  %6 = call i32 @exr_finish(ptr noundef %5)
  %7 = load ptr, ptr %4, align 8, !tbaa !12
  %8 = icmp eq ptr %7, null
  br i1 %8, label %10, label %9

9:                                                ; preds = %2
  call void @_ZdlPvm(ptr noundef %7, i64 noundef 8) #25
  br label %10

10:                                               ; preds = %9, %2
  ret void
}

; Function Attrs: mustprogress nounwind uwtable
define internal noundef nonnull align 1 dereferenceable(1) ptr @"_ZNSt19_Sp_counted_deleterIPP19_priv_exr_context_tZN7Imf_3_47ContextC1EvE3$_0SaIvELN9__gnu_cxx12_Lock_policyE2EE5_Impl6_M_delEv"(ptr noundef nonnull align 8 dereferenceable(8) %0) #7 align 2 personality ptr @__gxx_personality_v0 {
  %2 = alloca ptr, align 8
  store ptr %0, ptr %2, align 8, !tbaa !402
  %3 = load ptr, ptr %2, align 8
  %4 = invoke noundef nonnull align 1 dereferenceable(1) ptr @"_ZNSt14_Sp_ebo_helperILi0EZN7Imf_3_47ContextC1EvE3$_0Lb1EE6_S_getERS3_"(ptr noundef nonnull align 1 dereferenceable(1) %3)
          to label %5 unwind label %6

5:                                                ; preds = %1
  ret ptr %4

6:                                                ; preds = %1
  %7 = landingpad { ptr, i32 }
          catch ptr null
  %8 = extractvalue { ptr, i32 } %7, 0
  call void @__clang_call_terminate(ptr %8) #24
  unreachable
}

; Function Attrs: mustprogress nounwind uwtable
define internal void @"_ZNSt19_Sp_counted_deleterIPP19_priv_exr_context_tZN7Imf_3_47ContextC1EvE3$_0SaIvELN9__gnu_cxx12_Lock_policyE2EE10_M_disposeEv"(ptr noundef nonnull align 8 dereferenceable(24) %0) unnamed_addr #7 align 2 personality ptr @__gxx_personality_v0 {
  %2 = alloca ptr, align 8
  store ptr %0, ptr %2, align 8, !tbaa !387
  %3 = load ptr, ptr %2, align 8
  %4 = getelementptr inbounds nuw %"class.std::_Sp_counted_deleter", ptr %3, i32 0, i32 1
  %5 = call noundef nonnull align 1 dereferenceable(1) ptr @"_ZNSt19_Sp_counted_deleterIPP19_priv_exr_context_tZN7Imf_3_47ContextC1EvE3$_0SaIvELN9__gnu_cxx12_Lock_policyE2EE5_Impl6_M_delEv"(ptr noundef nonnull align 8 dereferenceable(8) %4) #3
  %6 = getelementptr inbounds nuw %"class.std::_Sp_counted_deleter", ptr %3, i32 0, i32 1
  %7 = getelementptr inbounds nuw %"class.std::_Sp_counted_deleter<_priv_exr_context_t **, (lambda at /home/dtcxzyw/WorkSpace/Projects/compilers/llvm-opt-benchmark/bench/openexr/openexr/src/lib/OpenEXR/ImfContext.cpp:109:35), std::allocator<void>, __gnu_cxx::_S_atomic>::_Impl", ptr %6, i32 0, i32 0
  %8 = load ptr, ptr %7, align 8, !tbaa !406
  invoke void @"_ZZN7Imf_3_47ContextC1EvENK3$_0clEPP19_priv_exr_context_t"(ptr noundef nonnull align 1 dereferenceable(1) %5, ptr noundef %8)
          to label %9 unwind label %10

9:                                                ; preds = %1
  ret void

10:                                               ; preds = %1
  %11 = landingpad { ptr, i32 }
          catch ptr null
  %12 = extractvalue { ptr, i32 } %11, 0
  call void @__clang_call_terminate(ptr %12) #24
  unreachable
}