; Function Attrs: mustprogress nounwind uwtable
define internal void @"_ZNSt19_Sp_counted_deleterIPP19_priv_exr_context_tZN7Imf_3_47ContextC1EvE3$_0SaIvELN9__gnu_cxx12_Lock_policyE2EE10_M_disposeEv"(ptr noundef nonnull readonly align 8 captures(none) dereferenceable(24) %0) unnamed_addr #8 align 2 personality ptr @__gxx_personality_v0 {
  %2 = getelementptr inbounds nuw i8, ptr %0, i64 16
  %3 = load ptr, ptr %2, align 8, !tbaa !201
  %4 = invoke i32 @exr_finish(ptr noundef %3)
          to label %.noexc unwind label %7

.noexc:                                           ; preds = %1
  %5 = icmp eq ptr %3, null
  br i1 %5, label %"_ZZN7Imf_3_47ContextC1EvENK3$_0clEPP19_priv_exr_context_t.exit", label %6

6:                                                ; preds = %.noexc
  tail call void @_ZdlPvm(ptr noundef nonnull %3, i64 noundef 8) #31
  br label %"_ZZN7Imf_3_47ContextC1EvENK3$_0clEPP19_priv_exr_context_t.exit"

"_ZZN7Imf_3_47ContextC1EvENK3$_0clEPP19_priv_exr_context_t.exit": ; preds = %6, %.noexc
  ret void

7:                                                ; preds = %1
  %8 = landingpad { ptr, i32 }
          catch ptr null
  %9 = extractvalue { ptr, i32 } %8, 0
  tail call void @__clang_call_terminate(ptr %9) #33
  unreachable
}